target datalayout = "e-m:e-p270:32:32-p271:32:32-p272:64:64-i64:64-i128:128-f80:128-n8:16:32:64-S128"
target triple = "x86_64-pc-linux-gnu"

%struct.BEValue = type { i8, i32, ptr, ptr, ptr }
%struct.GenContext_ = type { i8, ptr, ptr, ptr, ptr, ptr, ptr, ptr, ptr, ptr, ptr, ptr, ptr, ptr, ptr, ptr, ptr, ptr, ptr, ptr, ptr, ptr, ptr, ptr, ptr, ptr, ptr, ptr, ptr, ptr, ptr, ptr, ptr, %struct.anon.85, i32, i32, %struct.DebugContext, ptr, ptr, ptr, %struct.BEValue, i8, %union.SourceSpan, ptr, ptr, ptr, ptr }
%struct.anon.85 = type { ptr, ptr, ptr }
%struct.DebugContext = type { i16, ptr, ptr, %struct.DebugFile_, ptr, ptr, ptr, ptr }
%struct.DebugFile_ = type { i16, ptr }
%union.SourceSpan = type { i64 }

; Function Attrs: nounwind uwtable
define internal ptr @llvm_get_current_block_if_in_use(ptr noundef %0) #0 {
  %2 = alloca ptr, align 8
  %3 = alloca ptr, align 8
  %4 = alloca ptr, align 8
  %5 = alloca ptr, align 8
  store ptr %0, ptr %4, align 8
  %6 = load ptr, ptr %4, align 8
  %7 = getelementptr inbounds %struct.GenContext_, ptr %6, i32 0, i32 10
  %8 = load ptr, ptr %7, align 8
  store ptr %8, ptr %5, align 8
  %9 = load ptr, ptr %5, align 8
  store ptr %9, ptr %2, align 8
  %10 = load ptr, ptr %2, align 8
  %11 = call ptr @LLVMGetFirstInstruction(ptr noundef %10) #8
  %12 = icmp ne ptr %11, null
  br i1 %12, label %19, label %13

13:                                               ; preds = %1
  %14 = load ptr, ptr %2, align 8
  %15 = call ptr @LLVMBasicBlockAsValue(ptr noundef %14) #8
  %16 = call ptr @LLVMGetFirstUse(ptr noundef %15) #8
  %17 = icmp ne ptr %16, null
  %18 = xor i1 %17, true
  br label %19

19:                                               ; preds = %13, %1
  %20 = phi i1 [ false, %1 ], [ %18, %13 ]
  br i1 %20, label %21, label %30

21:                                               ; preds = %19
  %22 = load ptr, ptr %5, align 8
  call void @LLVMDeleteBasicBlock(ptr noundef %22)
  %23 = load ptr, ptr %4, align 8
  %24 = getelementptr inbounds %struct.GenContext_, ptr %23, i32 0, i32 10
  store ptr null, ptr %24, align 8
  %25 = load ptr, ptr %4, align 8
  %26 = getelementptr inbounds %struct.GenContext_, ptr %25, i32 0, i32 41
  %27 = load i8, ptr %26, align 8
  %28 = and i8 %27, -2
  %29 = or i8 %28, 0
  store i8 %29, ptr %26, align 8
  store ptr null, ptr %3, align 8
  br label %32

30:                                               ; preds = %19
  %31 = load ptr, ptr %5, align 8
  store ptr %31, ptr %3, align 8
  br label %32

32:                                               ; preds = %30, %21
  %33 = load ptr, ptr %3, align 8
  ret ptr %33
}