; Function Attrs: nounwind uwtable
define internal fastcc noundef ptr @llvm_get_current_block_if_in_use(ptr nocapture noundef %0) unnamed_addr #0 {
  %2 = getelementptr inbounds i8, ptr %0, i64 80
  %3 = load ptr, ptr %2, align 8
  %4 = tail call ptr @LLVMGetFirstInstruction(ptr noundef %3) #10
  %.not = icmp eq ptr %4, null
  br i1 %.not, label %5, label %.critedge

5:                                                ; preds = %1
  %6 = tail call ptr @LLVMBasicBlockAsValue(ptr noundef %3) #10
  %7 = tail call ptr @LLVMGetFirstUse(ptr noundef %6) #10
  %.not9 = icmp eq ptr %7, null
  br i1 %.not9, label %8, label %.critedge

8:                                                ; preds = %5
  tail call void @LLVMDeleteBasicBlock(ptr noundef %3) #10
  store ptr null, ptr %2, align 8
  %9 = getelementptr inbounds i8, ptr %0, i64 424
  %10 = load i8, ptr %9, align 8
  %11 = and i8 %10, -2
  store i8 %11, ptr %9, align 8
  br label %.critedge

.critedge:                                        ; preds = %5, %1, %8
  %.0 = phi ptr [ null, %8 ], [ %3, %1 ], [ %3, %5 ]
  ret ptr %.0
}